; Function Attrs: nounwind uwtable
define hidden noundef zeroext i1 @je_pac_decay_ms_set(ptr noundef %0, ptr noundef %1, i32 noundef %2, i64 noundef %3, i32 noundef %4) local_unnamed_addr #0 {
  %6 = alloca %struct.nstime_t, align 8
  %switch.i = icmp eq i32 %2, 1
  %7 = getelementptr inbounds nuw i8, ptr %1, i64 62224
  %8 = load ptr, ptr %7, align 8, !tbaa !34
  %.sink13.i = select i1 %switch.i, i64 56, i64 19496
  %.sink12.v.i = select i1 %switch.i, i64 58648, i64 60432
  %.sink12.i = getelementptr inbounds nuw i8, ptr %1, i64 %.sink12.v.i
  %.sink.idx.i = select i1 %switch.i, i64 0, i64 24
  %.sink.i = getelementptr inbounds nuw i8, ptr %8, i64 %.sink.idx.i
  %9 = getelementptr inbounds nuw i8, ptr %1, i64 %.sink13.i
  %10 = tail call zeroext i1 @je_decay_ms_valid(i64 noundef %3) #9
  br i1 %10, label %11, label %29

11:                                               ; preds = %5
  %12 = getelementptr inbounds nuw i8, ptr %.sink12.i, i64 64
  %13 = tail call i32 @pthread_mutex_trylock(ptr noundef nonnull %12) #9
  %.not.i = icmp eq i32 %13, 0
  br i1 %.not.i, label %16, label %14

14:                                               ; preds = %11
  tail call void @je_malloc_mutex_lock_slow(ptr noundef nonnull %.sink12.i) #9
  %15 = getelementptr inbounds nuw i8, ptr %.sink12.i, i64 104
  store atomic i8 1, ptr %15 monotonic, align 1
  br label %16

16:                                               ; preds = %14, %11
  %17 = getelementptr inbounds nuw i8, ptr %.sink12.i, i64 56
  %18 = load i64, ptr %17, align 8, !tbaa !52
  %19 = add i64 %18, 1
  store i64 %19, ptr %17, align 8, !tbaa !52
  %20 = getelementptr inbounds nuw i8, ptr %.sink12.i, i64 48
  %21 = load ptr, ptr %20, align 8, !tbaa !56
  %.not.i.i = icmp eq ptr %21, %0
  br i1 %.not.i.i, label %malloc_mutex_lock.exit, label %22

22:                                               ; preds = %16
  store ptr %0, ptr %20, align 8, !tbaa !56
  %23 = getelementptr inbounds nuw i8, ptr %.sink12.i, i64 40
  %24 = load i64, ptr %23, align 8, !tbaa !57
  %25 = add i64 %24, 1
  store i64 %25, ptr %23, align 8, !tbaa !57
  br label %malloc_mutex_lock.exit

malloc_mutex_lock.exit:                           ; preds = %16, %22
  call void @llvm.lifetime.start.p0(i64 8, ptr nonnull %6) #9
  call void @je_nstime_init_update(ptr noundef nonnull %6) #9
  call void @je_decay_reinit(ptr noundef nonnull %.sink12.i, ptr noundef nonnull %6, i64 noundef %3) #9
  %26 = call zeroext i1 @je_pac_maybe_decay_purge(ptr noundef %0, ptr noundef nonnull %1, ptr noundef nonnull %.sink12.i, ptr noundef %.sink.i, ptr noundef nonnull %9, i32 noundef %4)
  %27 = getelementptr inbounds nuw i8, ptr %.sink12.i, i64 104
  store atomic i8 0, ptr %27 monotonic, align 1
  %28 = call i32 @pthread_mutex_unlock(ptr noundef nonnull %12) #9
  call void @llvm.lifetime.end.p0(i64 8, ptr nonnull %6) #9
  br label %29

29:                                               ; preds = %5, %malloc_mutex_lock.exit
  %.0 = xor i1 %10, true
  ret i1 %.0
}